target datalayout = "e-m:e-p270:32:32-p271:32:32-p272:64:64-i64:64-i128:128-f80:128-n8:16:32:64-S128"
target triple = "x86_64-pc-linux-gnu"

%struct.lua_State = type { %struct.GCRef, i8, i8, i8, i8, %struct.MRef, %struct.GCRef, ptr, ptr, %struct.MRef, %struct.MRef, %struct.GCRef, %struct.GCRef, ptr, i32 }
%struct.MRef = type { i64 }
%struct.GCRef = type { i64 }
%struct.global_State = type { ptr, ptr, %struct.GCState, %struct.GCstr, i8, i8, i8, i8, %struct.StrInternState, i32, %struct.GCRef, %struct.SBuf, %union.TValue, %union.TValue, %struct.Node, %union.TValue, %struct.GCupval, i32, i32, ptr, ptr, ptr, i32, i32, %struct.GCRef, %struct.MRef, %struct.MRef, %struct.PRNGState, [39 x %struct.GCRef] }
%struct.GCState = type { i64, i64, i8, i8, i8, i8, i32, %struct.GCRef, %struct.MRef, %struct.GCRef, %struct.GCRef, %struct.GCRef, %struct.GCRef, i64, i64, i32, i32, %struct.MRef }
%struct.GCstr = type { %struct.GCRef, i8, i8, i8, i8, i32, i32, i32 }
%struct.StrInternState = type { ptr, i32, i32, i32, i8, i8, i8, i8, i64 }
%struct.SBuf = type { ptr, ptr, ptr, %struct.MRef }
%struct.Node = type { %union.TValue, %union.TValue, %struct.MRef }
%union.TValue = type { i64 }
%struct.GCupval = type { %struct.GCRef, i8, i8, i8, i8, %union.anon, %struct.MRef, i32 }
%union.anon = type { %struct.anon.1 }
%struct.anon.1 = type { %struct.GCRef, %struct.GCRef }
%struct.PRNGState = type { [4 x i64] }

@.str.2 = private unnamed_addr constant [24 x i8] c"store to dead GC object\00", align 1

; Function Attrs: alwaysinline nounwind uwtable
define internal void @checklivetv(ptr noundef %0, ptr noundef %1, ptr noundef %2) #3 {
  %4 = alloca ptr, align 8
  %5 = alloca ptr, align 8
  %6 = alloca ptr, align 8
  store ptr %0, ptr %4, align 8, !tbaa !4
  store ptr %1, ptr %5, align 8, !tbaa !25
  store ptr %2, ptr %6, align 8, !tbaa !31
  ret void
}

; Function Attrs: alwaysinline nounwind uwtable
define internal void @setgcVraw(ptr noundef %0, ptr noundef %1, i32 noundef %2) #3 {
  %4 = alloca ptr, align 8
  %5 = alloca ptr, align 8
  %6 = alloca i32, align 4
  store ptr %0, ptr %4, align 8, !tbaa !25
  store ptr %1, ptr %5, align 8, !tbaa !64
  store i32 %2, ptr %6, align 4, !tbaa !30
  %7 = load ptr, ptr %5, align 8, !tbaa !64
  %8 = ptrtoint ptr %7 to i64
  %9 = load i32, ptr %6, align 4, !tbaa !30
  %10 = zext i32 %9 to i64
  %11 = shl i64 %10, 47
  %12 = or i64 %8, %11
  %13 = load ptr, ptr %4, align 8, !tbaa !25
  %14 = getelementptr inbounds nuw %struct.GCRef, ptr %13, i32 0, i32 0
  store i64 %12, ptr %14, align 8, !tbaa !22
  ret void
}

; Function Attrs: alwaysinline nounwind uwtable
define internal void @setgcV(ptr noundef %0, ptr noundef %1, ptr noundef %2, i32 noundef %3) #3 {
  %5 = alloca ptr, align 8
  %6 = alloca ptr, align 8
  %7 = alloca ptr, align 8
  %8 = alloca i32, align 4
  store ptr %0, ptr %5, align 8, !tbaa !4
  store ptr %1, ptr %6, align 8, !tbaa !25
  store ptr %2, ptr %7, align 8, !tbaa !64
  store i32 %3, ptr %8, align 4, !tbaa !30
  %9 = load ptr, ptr %6, align 8, !tbaa !25
  %10 = load ptr, ptr %7, align 8, !tbaa !64
  %11 = load i32, ptr %8, align 4, !tbaa !30
  call void @setgcVraw(ptr noundef %9, ptr noundef %10, i32 noundef %11)
  %12 = load ptr, ptr %5, align 8, !tbaa !4
  %13 = load ptr, ptr %6, align 8, !tbaa !25
  call void @checklivetv(ptr noundef %12, ptr noundef %13, ptr noundef @.str.2)
  ret void
}

; Function Attrs: alwaysinline nounwind uwtable
define internal void @lj_buf_reset(ptr noundef %0) #3 {
  %2 = alloca ptr, align 8
  store ptr %0, ptr %2, align 8, !tbaa !37
  %3 = load ptr, ptr %2, align 8, !tbaa !37
  %4 = getelementptr inbounds nuw %struct.SBuf, ptr %3, i32 0, i32 2
  %5 = load ptr, ptr %4, align 8, !tbaa !67
  %6 = load ptr, ptr %2, align 8, !tbaa !37
  %7 = getelementptr inbounds nuw %struct.SBuf, ptr %6, i32 0, i32 0
  store ptr %5, ptr %7, align 8, !tbaa !68
  ret void
}

; Function Attrs: alwaysinline nounwind uwtable
define internal void @setstrV(ptr noundef %0, ptr noundef %1, ptr noundef %2) #3 {
  %4 = alloca ptr, align 8
  %5 = alloca ptr, align 8
  %6 = alloca ptr, align 8
  store ptr %0, ptr %4, align 8, !tbaa !4
  store ptr %1, ptr %5, align 8, !tbaa !25
  store ptr %2, ptr %6, align 8, !tbaa !26
  %7 = load ptr, ptr %4, align 8, !tbaa !4
  %8 = load ptr, ptr %5, align 8, !tbaa !25
  %9 = load ptr, ptr %6, align 8, !tbaa !26
  call void @setgcV(ptr noundef %7, ptr noundef %8, ptr noundef %9, i32 noundef -5)
  ret void
}

; Function Attrs: alwaysinline nounwind uwtable
define internal ptr @lj_buf_str(ptr noundef %0, ptr noundef %1) #3 {
  %3 = alloca ptr, align 8
  %4 = alloca ptr, align 8
  store ptr %0, ptr %3, align 8, !tbaa !4
  store ptr %1, ptr %4, align 8, !tbaa !37
  %5 = load ptr, ptr %3, align 8, !tbaa !4
  %6 = load ptr, ptr %4, align 8, !tbaa !37
  %7 = getelementptr inbounds nuw %struct.SBuf, ptr %6, i32 0, i32 2
  %8 = load ptr, ptr %7, align 8, !tbaa !67
  %9 = load ptr, ptr %4, align 8, !tbaa !37
  %10 = getelementptr inbounds nuw %struct.SBuf, ptr %9, i32 0, i32 0
  %11 = load ptr, ptr %10, align 8, !tbaa !68
  %12 = load ptr, ptr %4, align 8, !tbaa !37
  %13 = getelementptr inbounds nuw %struct.SBuf, ptr %12, i32 0, i32 2
  %14 = load ptr, ptr %13, align 8, !tbaa !67
  %15 = ptrtoint ptr %11 to i64
  %16 = ptrtoint ptr %14 to i64
  %17 = sub i64 %15, %16
  %18 = trunc i64 %17 to i32
  %19 = zext i32 %18 to i64
  %20 = call ptr @lj_str_new(ptr noundef %5, ptr noundef %8, i64 noundef %19)
  ret ptr %20
}

; Function Attrs: alwaysinline nounwind uwtable
define internal ptr @lj_buf_tmp_(ptr noundef %0) #3 {
  %2 = alloca ptr, align 8
  %3 = alloca ptr, align 8
  store ptr %0, ptr %2, align 8, !tbaa !4
  call void @llvm.lifetime.start.p0(i64 8, ptr %3) #7
  %4 = load ptr, ptr %2, align 8, !tbaa !4
  %5 = getelementptr inbounds nuw %struct.lua_State, ptr %4, i32 0, i32 5
  %6 = getelementptr inbounds nuw %struct.MRef, ptr %5, i32 0, i32 0
  %7 = load i64, ptr %6, align 8, !tbaa !11
  %8 = inttoptr i64 %7 to ptr
  %9 = getelementptr inbounds nuw %struct.global_State, ptr %8, i32 0, i32 11
  store ptr %9, ptr %3, align 8, !tbaa !37
  %10 = load ptr, ptr %2, align 8, !tbaa !4
  %11 = ptrtoint ptr %10 to i64
  %12 = load ptr, ptr %3, align 8, !tbaa !37
  %13 = getelementptr inbounds nuw %struct.SBuf, ptr %12, i32 0, i32 3
  %14 = getelementptr inbounds nuw %struct.MRef, ptr %13, i32 0, i32 0
  store i64 %11, ptr %14, align 8, !tbaa !66
  %15 = load ptr, ptr %3, align 8, !tbaa !37
  call void @lj_buf_reset(ptr noundef %15)
  %16 = load ptr, ptr %3, align 8, !tbaa !37
  call void @llvm.lifetime.end.p0(i64 8, ptr %3) #7
  ret ptr %16
}

; Function Attrs: nounwind uwtable
define internal i32 @lj_cf_string_format(ptr noundef %0) #0 {
  %2 = alloca ptr, align 8
  %3 = alloca i32, align 4
  %4 = alloca ptr, align 8
  store ptr %0, ptr %2, align 8, !tbaa !4
  call void @llvm.lifetime.start.p0(i64 4, ptr %3) #7
  store i32 0, ptr %3, align 4, !tbaa !30
  call void @llvm.lifetime.start.p0(i64 8, ptr %4) #7
  br label %5

5:                                                ; preds = %13, %1
  %6 = load ptr, ptr %2, align 8, !tbaa !4
  %7 = call ptr @lj_buf_tmp_(ptr noundef %6)
  store ptr %7, ptr %4, align 8, !tbaa !37
  %8 = load ptr, ptr %2, align 8, !tbaa !4
  %9 = load ptr, ptr %4, align 8, !tbaa !37
  %10 = load i32, ptr %3, align 4, !tbaa !30
  %11 = sub nsw i32 0, %10
  %12 = call i32 @lj_strfmt_putarg(ptr noundef %8, ptr noundef %9, i32 noundef 1, i32 noundef %11)
  store i32 %12, ptr %3, align 4, !tbaa !30
  br label %13

13:                                               ; preds = %5
  %14 = load i32, ptr %3, align 4, !tbaa !30
  %15 = icmp sgt i32 %14, 0
  br i1 %15, label %5, label %16, !llvm.loop !62

16:                                               ; preds = %13
  %17 = load ptr, ptr %2, align 8, !tbaa !4
  %18 = load ptr, ptr %2, align 8, !tbaa !4
  %19 = getelementptr inbounds nuw %struct.lua_State, ptr %18, i32 0, i32 8
  %20 = load ptr, ptr %19, align 8, !tbaa !21
  %21 = getelementptr inbounds %union.TValue, ptr %20, i64 -1
  %22 = load ptr, ptr %2, align 8, !tbaa !4
  %23 = load ptr, ptr %4, align 8, !tbaa !37
  %24 = call ptr @lj_buf_str(ptr noundef %22, ptr noundef %23)
  call void @setstrV(ptr noundef %17, ptr noundef %21, ptr noundef %24)
  %25 = load ptr, ptr %2, align 8, !tbaa !4
  %26 = getelementptr inbounds nuw %struct.lua_State, ptr %25, i32 0, i32 5
  %27 = getelementptr inbounds nuw %struct.MRef, ptr %26, i32 0, i32 0
  %28 = load i64, ptr %27, align 8, !tbaa !11
  %29 = inttoptr i64 %28 to ptr
  %30 = getelementptr inbounds nuw %struct.global_State, ptr %29, i32 0, i32 2
  %31 = getelementptr inbounds nuw %struct.GCState, ptr %30, i32 0, i32 0
  %32 = load i64, ptr %31, align 8, !tbaa !39
  %33 = load ptr, ptr %2, align 8, !tbaa !4
  %34 = getelementptr inbounds nuw %struct.lua_State, ptr %33, i32 0, i32 5
  %35 = getelementptr inbounds nuw %struct.MRef, ptr %34, i32 0, i32 0
  %36 = load i64, ptr %35, align 8, !tbaa !11
  %37 = inttoptr i64 %36 to ptr
  %38 = getelementptr inbounds nuw %struct.global_State, ptr %37, i32 0, i32 2
  %39 = getelementptr inbounds nuw %struct.GCState, ptr %38, i32 0, i32 1
  %40 = load i64, ptr %39, align 8, !tbaa !48
  %41 = icmp uge i64 %32, %40
  %42 = xor i1 %41, true
  %43 = xor i1 %42, true
  %44 = zext i1 %43 to i32
  %45 = sext i32 %44 to i64
  %46 = call i64 @llvm.expect.i64(i64 %45, i64 0)
  %47 = icmp ne i64 %46, 0
  br i1 %47, label %48, label %51

48:                                               ; preds = %16
  %49 = load ptr, ptr %2, align 8, !tbaa !4
  %50 = call i32 @lj_gc_step(ptr noundef %49)
  br label %51

51:                                               ; preds = %48, %16
  call void @llvm.lifetime.end.p0(i64 8, ptr %4) #7
  call void @llvm.lifetime.end.p0(i64 4, ptr %3) #7
  ret i32 1
}