; Function Attrs: nounwind uwtable
define internal noundef i32 @lj_cf_string_format(ptr noundef %0) #0 {
  %2 = getelementptr inbounds nuw i8, ptr %0, i64 16
  %3 = ptrtoint ptr %0 to i64
  br label %4

4:                                                ; preds = %4, %1
  %.0 = phi i32 [ 0, %1 ], [ %12, %4 ]
  %5 = load i64, ptr %2, align 8, !tbaa !4
  %6 = inttoptr i64 %5 to ptr
  %7 = getelementptr inbounds nuw i8, ptr %6, i64 200
  %8 = getelementptr inbounds nuw i8, ptr %6, i64 224
  store i64 %3, ptr %8, align 8, !tbaa !26
  %9 = getelementptr inbounds nuw i8, ptr %6, i64 216
  %10 = load ptr, ptr %9, align 8, !tbaa !29
  store ptr %10, ptr %7, align 8, !tbaa !30
  %11 = sub nsw i32 0, %.0
  %12 = tail call i32 @lj_strfmt_putarg(ptr noundef %0, ptr noundef nonnull %7, i32 noundef 1, i32 noundef %11) #7
  %13 = icmp sgt i32 %12, 0
  br i1 %13, label %4, label %14, !llvm.loop !57

14:                                               ; preds = %4
  %15 = getelementptr inbounds nuw i8, ptr %6, i64 216
  %16 = getelementptr inbounds nuw i8, ptr %0, i64 40
  %17 = load ptr, ptr %16, align 8, !tbaa !15
  %18 = getelementptr inbounds i8, ptr %17, i64 -8
  %19 = load ptr, ptr %15, align 8, !tbaa !29
  %20 = load ptr, ptr %7, align 8, !tbaa !30
  %21 = ptrtoint ptr %20 to i64
  %22 = ptrtoint ptr %19 to i64
  %23 = sub i64 %21, %22
  %24 = and i64 %23, 4294967295
  %25 = tail call ptr @lj_str_new(ptr noundef nonnull %0, ptr noundef %19, i64 noundef %24) #7
  %26 = ptrtoint ptr %25 to i64
  %27 = or i64 %26, -703687441776640
  store i64 %27, ptr %18, align 8, !tbaa !16
  %28 = load i64, ptr %2, align 8, !tbaa !4
  %29 = inttoptr i64 %28 to ptr
  %30 = getelementptr inbounds nuw i8, ptr %29, i64 16
  %31 = load i64, ptr %30, align 8, !tbaa !31
  %32 = getelementptr inbounds nuw i8, ptr %29, i64 24
  %33 = load i64, ptr %32, align 8, !tbaa !39
  %.not = icmp ult i64 %31, %33
  br i1 %.not, label %36, label %34, !prof !40

34:                                               ; preds = %14
  %35 = tail call i32 @lj_gc_step(ptr noundef nonnull %0) #7
  br label %36

36:                                               ; preds = %34, %14
  ret i32 1
}